# SymbolsHelper-Confirmed: 5.74.0 amd64
libKF5BluezQt.so.6 libkf5bluezqt6 #MINVER#
* Build-Depends-Package: libkf5bluezqt-dev
 _ZN7BluezQt11GattManager11qt_metacallEN11QMetaObject4CallEiPPv@Base 5.61.0
 _ZN7BluezQt11GattManager11qt_metacastEPKc@Base 5.61.0
 _ZN7BluezQt11GattManager16staticMetaObjectE@Base 5.61.0
 _ZN7BluezQt11GattManager19registerApplicationEPNS_15GattApplicationE@Base 5.61.0
 _ZN7BluezQt11GattManager21unregisterApplicationEPNS_15GattApplicationE@Base 5.61.0
 _ZN7BluezQt11GattManagerC1ERK7QStringP7QObject@Base 5.61.0
 _ZN7BluezQt11GattManagerC2ERK7QStringP7QObject@Base 5.61.0
 _ZN7BluezQt11GattManagerD0Ev@Base 5.61.0
 _ZN7BluezQt11GattManagerD1Ev@Base 5.61.0
 _ZN7BluezQt11GattManagerD2Ev@Base 5.61.0
 _ZN7BluezQt11GattService11qt_metacallEN11QMetaObject4CallEiPPv@Base 5.61.0
 _ZN7BluezQt11GattService11qt_metacastEPKc@Base 5.61.0
 _ZN7BluezQt11GattService16staticMetaObjectE@Base 5.61.0
 _ZN7BluezQt11GattServiceC1ERK7QStringbPNS_15GattApplicationE@Base 5.61.0
 _ZN7BluezQt11GattServiceC2ERK7QStringbPNS_15GattApplicationE@Base 5.61.0
 _ZN7BluezQt11GattServiceD0Ev@Base 5.61.0
 _ZN7BluezQt11GattServiceD1Ev@Base 5.61.0
 _ZN7BluezQt11GattServiceD2Ev@Base 5.61.0
 _ZN7BluezQt11MediaPlayer10setShuffleENS0_7ShuffleE@Base 5.13.0
 _ZN7BluezQt11MediaPlayer11fastForwardEv@Base 5.13.0
 _ZN7BluezQt11MediaPlayer11nameChangedERK7QString@Base 5.13.0
 _ZN7BluezQt11MediaPlayer11qt_metacallEN11QMetaObject4CallEiPPv@Base 5.13.0
 _ZN7BluezQt11MediaPlayer11qt_metacastEPKc@Base 5.13.0
 _ZN7BluezQt11MediaPlayer12setEqualizerENS0_9EqualizerE@Base 5.13.0
 _ZN7BluezQt11MediaPlayer12trackChangedENS_16MediaPlayerTrackE@Base 5.13.0
 _ZN7BluezQt11MediaPlayer13repeatChangedENS0_6RepeatE@Base 5.13.0
 _ZN7BluezQt11MediaPlayer13statusChangedENS0_6StatusE@Base 5.13.0
 _ZN7BluezQt11MediaPlayer14shuffleChangedENS0_7ShuffleE@Base 5.13.0
 _ZN7BluezQt11MediaPlayer15positionChangedEj@Base 5.13.0
 _ZN7BluezQt11MediaPlayer16equalizerChangedENS0_9EqualizerE@Base 5.13.0
 _ZN7BluezQt11MediaPlayer16staticMetaObjectE@Base 5.13.0
 _ZN7BluezQt11MediaPlayer4nextEv@Base 5.13.0
 _ZN7BluezQt11MediaPlayer4playEv@Base 5.13.0
 _ZN7BluezQt11MediaPlayer4stopEv@Base 5.13.0
 _ZN7BluezQt11MediaPlayer5pauseEv@Base 5.13.0
 _ZN7BluezQt11MediaPlayer6rewindEv@Base 5.13.0
 _ZN7BluezQt11MediaPlayer8previousEv@Base 5.13.0
 _ZN7BluezQt11MediaPlayer9setRepeatENS0_6RepeatE@Base 5.13.0
 _ZN7BluezQt11MediaPlayerC1ERK7QStringRK4QMapIS1_8QVariantE@Base 5.13.0
 _ZN7BluezQt11MediaPlayerC2ERK7QStringRK4QMapIS1_8QVariantE@Base 5.13.0
 _ZN7BluezQt11MediaPlayerD0Ev@Base 5.13.0
 _ZN7BluezQt11MediaPlayerD1Ev@Base 5.13.0
 _ZN7BluezQt11MediaPlayerD2Ev@Base 5.13.0
 _ZN7BluezQt11ObexManager11qt_metacallEN11QMetaObject4CallEiPPv@Base 5.2.50
 _ZN7BluezQt11ObexManager11qt_metacastEPKc@Base 5.2.50
 _ZN7BluezQt11ObexManager12sessionAddedE14QSharedPointerINS_11ObexSessionEE@Base 5.13.0
 _ZN7BluezQt11ObexManager12startServiceEv@Base 5.2.50
 _ZN7BluezQt11ObexManager13createSessionERK7QStringRK4QMapIS1_8QVariantE@Base 5.2.50
 _ZN7BluezQt11ObexManager13registerAgentEPNS_9ObexAgentE@Base 5.2.50
 _ZN7BluezQt11ObexManager13removeSessionERK15QDBusObjectPath@Base 5.2.50
 _ZN7BluezQt11ObexManager14sessionRemovedE14QSharedPointerINS_11ObexSessionEE@Base 5.13.0
 _ZN7BluezQt11ObexManager15unregisterAgentEPNS_9ObexAgentE@Base 5.2.50
 _ZN7BluezQt11ObexManager16staticMetaObjectE@Base 5.2.50
 _ZN7BluezQt11ObexManager18operationalChangedEb@Base 5.2.50
 _ZN7BluezQt11ObexManager4initEv@Base 5.2.50
 _ZN7BluezQt11ObexManagerC1EP7QObject@Base 5.2.50
 _ZN7BluezQt11ObexManagerC2EP7QObject@Base 5.2.50
 _ZN7BluezQt11ObexManagerD0Ev@Base 5.2.50
 _ZN7BluezQt11ObexManagerD1Ev@Base 5.2.50
 _ZN7BluezQt11ObexManagerD2Ev@Base 5.2.50
 _ZN7BluezQt11ObexSession11qt_metacallEN11QMetaObject4CallEiPPv@Base 5.2.50
 _ZN7BluezQt11ObexSession11qt_metacastEPKc@Base 5.2.50
 _ZN7BluezQt11ObexSession15getCapabilitiesEv@Base 5.2.50
 _ZN7BluezQt11ObexSession16staticMetaObjectE@Base 5.2.50
 _ZN7BluezQt11ObexSessionC1ERK7QStringRK4QMapIS1_8QVariantE@Base 5.13.0
 _ZN7BluezQt11ObexSessionC2ERK7QStringRK4QMapIS1_8QVariantE@Base 5.13.0
 _ZN7BluezQt11ObexSessionD0Ev@Base 5.2.50
 _ZN7BluezQt11ObexSessionD1Ev@Base 5.2.50
 _ZN7BluezQt11ObexSessionD2Ev@Base 5.2.50
 _ZN7BluezQt11PendingCall11qt_metacallEN11QMetaObject4CallEiPPv@Base 5.2.50
 _ZN7BluezQt11PendingCall11qt_metacastEPKc@Base 5.2.50
 _ZN7BluezQt11PendingCall11setUserDataERK8QVariant@Base 5.2.50
 _ZN7BluezQt11PendingCall15waitForFinishedEv@Base 5.2.50
 _ZN7BluezQt11PendingCall16staticMetaObjectE@Base 5.2.50
 _ZN7BluezQt11PendingCall8finishedEPS0_@Base 5.2.50
 _ZN7BluezQt11PendingCallC1ENS0_5ErrorERK7QStringP7QObject@Base 5.2.50
 _ZN7BluezQt11PendingCallC1ERK16QDBusPendingCallNS0_10ReturnTypeEP7QObject@Base 5.2.50
 _ZN7BluezQt11PendingCallC1ERK16QDBusPendingCallSt8functionIFvP23QDBusPendingCallWatcherS4_IFvRK10QDBusErrorEEP5QListI8QVariantEEEP7QObject@Base 5.61.0
 _ZN7BluezQt11PendingCallC2ENS0_5ErrorERK7QStringP7QObject@Base 5.2.50
 _ZN7BluezQt11PendingCallC2ERK16QDBusPendingCallNS0_10ReturnTypeEP7QObject@Base 5.2.50
 _ZN7BluezQt11PendingCallC2ERK16QDBusPendingCallSt8functionIFvP23QDBusPendingCallWatcherS4_IFvRK10QDBusErrorEEP5QListI8QVariantEEEP7QObject@Base 5.61.0
 _ZN7BluezQt11PendingCallD0Ev@Base 5.2.50
 _ZN7BluezQt11PendingCallD1Ev@Base 5.2.50
 _ZN7BluezQt11PendingCallD2Ev@Base 5.2.50
 _ZN7BluezQt12DevicesModel11qt_metacallEN11QMetaObject4CallEiPPv@Base 5.2.50
 _ZN7BluezQt12DevicesModel11qt_metacastEPKc@Base 5.2.50
 _ZN7BluezQt12DevicesModel16staticMetaObjectE@Base 5.2.50
 _ZN7BluezQt12DevicesModelC1EPNS_7ManagerEP7QObject@Base 5.2.50
 _ZN7BluezQt12DevicesModelC2EPNS_7ManagerEP7QObject@Base 5.2.50
 _ZN7BluezQt12DevicesModelD0Ev@Base 5.2.50
 _ZN7BluezQt12DevicesModelD1Ev@Base 5.2.50
 _ZN7BluezQt12DevicesModelD2Ev@Base 5.2.50
 _ZN7BluezQt12ObexTransfer11qt_metacallEN11QMetaObject4CallEiPPv@Base 5.2.50
 _ZN7BluezQt12ObexTransfer11qt_metacastEPKc@Base 5.2.50
 _ZN7BluezQt12ObexTransfer13statusChangedENS0_6StatusE@Base 5.2.50
 _ZN7BluezQt12ObexTransfer15fileNameChangedERK7QString@Base 5.2.50
 _ZN7BluezQt12ObexTransfer16staticMetaObjectE@Base 5.2.50
 _ZN7BluezQt12ObexTransfer18transferredChangedEy@Base 5.2.50
 _ZN7BluezQt12ObexTransfer6cancelEv@Base 5.2.50
 _ZN7BluezQt12ObexTransfer6resumeEv@Base 5.2.50
 _ZN7BluezQt12ObexTransfer7suspendEv@Base 5.2.50
 _ZN7BluezQt12ObexTransferC1ERK7QStringRK4QMapIS1_8QVariantE@Base 5.13.0
 _ZN7BluezQt12ObexTransferC2ERK7QStringRK4QMapIS1_8QVariantE@Base 5.13.0
 _ZN7BluezQt12ObexTransferD0Ev@Base 5.2.50
 _ZN7BluezQt12ObexTransferD1Ev@Base 5.2.50
 _ZN7BluezQt12ObexTransferD2Ev@Base 5.2.50
 _ZN7BluezQt13MediaEndpoint11qt_metacallEN11QMetaObject4CallEiPPv@Base 5.51.0
 _ZN7BluezQt13MediaEndpoint11qt_metacastEPKc@Base 5.51.0
 _ZN7BluezQt13MediaEndpoint16configurationSetERK7QStringRK4QMapIS1_8QVariantE@Base 5.51.0
 _ZN7BluezQt13MediaEndpoint16setConfigurationERK7QStringRK4QMapIS1_8QVariantE@Base 5.51.0
 _ZN7BluezQt13MediaEndpoint16staticMetaObjectE@Base 5.51.0
 _ZN7BluezQt13MediaEndpoint18clearConfigurationERK7QString@Base 5.51.0
 _ZN7BluezQt13MediaEndpoint19selectConfigurationERK10QByteArrayRKNS_7RequestIS1_EE@Base 5.51.0
 _ZN7BluezQt13MediaEndpoint20configurationClearedERK7QString@Base 5.51.0
 _ZN7BluezQt13MediaEndpoint21configurationSelectedERK10QByteArrayS3_@Base 5.51.0
 _ZN7BluezQt13MediaEndpoint7releaseEv@Base 5.51.0
 _ZN7BluezQt13MediaEndpointC1ERKNS0_13ConfigurationEP7QObject@Base 5.51.0
 _ZN7BluezQt13MediaEndpointC2ERKNS0_13ConfigurationEP7QObject@Base 5.51.0
 _ZN7BluezQt13MediaEndpointD0Ev@Base 5.51.0
 _ZN7BluezQt13MediaEndpointD1Ev@Base 5.51.0
 _ZN7BluezQt13MediaEndpointD2Ev@Base 5.51.0
 _ZN7BluezQt14InitManagerJob11qt_metacallEN11QMetaObject4CallEiPPv@Base 5.2.50
 _ZN7BluezQt14InitManagerJob11qt_metacastEPKc@Base 5.2.50
 _ZN7BluezQt14InitManagerJob12doEmitResultEv@Base 5.2.50
 _ZN7BluezQt14InitManagerJob16staticMetaObjectE@Base 5.2.50
 _ZN7BluezQt14InitManagerJob6resultEPS0_@Base 5.2.50
 _ZN7BluezQt14InitManagerJob7doStartEv@Base 5.2.50
 _ZN7BluezQt14InitManagerJobC1EPNS_7ManagerE@Base 5.2.50
 _ZN7BluezQt14InitManagerJobC2EPNS_7ManagerE@Base 5.2.50
 _ZN7BluezQt14InitManagerJobD0Ev@Base 5.2.50
 _ZN7BluezQt14InitManagerJobD1Ev@Base 5.2.50
 _ZN7BluezQt14InitManagerJobD2Ev@Base 5.2.50
 _ZN7BluezQt14MediaTransport10tryAcquireEv@Base 5.61.0
 _ZN7BluezQt14MediaTransport11qt_metacallEN11QMetaObject4CallEiPPv@Base 5.61.0
 _ZN7BluezQt14MediaTransport11qt_metacastEPKc@Base 5.61.0
 _ZN7BluezQt14MediaTransport12stateChangedENS0_5StateE@Base 5.61.0
 _ZN7BluezQt14MediaTransport13volumeChangedEt@Base 5.61.0
 _ZN7BluezQt14MediaTransport16staticMetaObjectE@Base 5.61.0
 _ZN7BluezQt14MediaTransport7acquireEv@Base 5.61.0
 _ZN7BluezQt14MediaTransport7releaseEv@Base 5.61.0
 _ZN7BluezQt14MediaTransportC1ERK7QStringRK4QMapIS1_8QVariantE@Base 5.61.0
 _ZN7BluezQt14MediaTransportC2ERK7QStringRK4QMapIS1_8QVariantE@Base 5.61.0
 _ZN7BluezQt14MediaTransportD0Ev@Base 5.61.0
 _ZN7BluezQt14MediaTransportD1Ev@Base 5.61.0
 _ZN7BluezQt14MediaTransportD2Ev@Base 5.61.0
 _ZN7BluezQt14ObexObjectPush11qt_metacallEN11QMetaObject4CallEiPPv@Base 5.2.50
 _ZN7BluezQt14ObexObjectPush11qt_metacastEPKc@Base 5.2.50
 _ZN7BluezQt14ObexObjectPush16pullBusinessCardERK7QString@Base 5.2.50
 _ZN7BluezQt14ObexObjectPush16staticMetaObjectE@Base 5.2.50
 _ZN7BluezQt14ObexObjectPush21exchangeBusinessCardsERK7QStringS3_@Base 5.2.50
 _ZN7BluezQt14ObexObjectPush8sendFileERK7QString@Base 5.2.50
 _ZN7BluezQt14ObexObjectPushC1ERK15QDBusObjectPathP7QObject@Base 5.2.50
 _ZN7BluezQt14ObexObjectPushC2ERK15QDBusObjectPathP7QObject@Base 5.2.50
 _ZN7BluezQt14ObexObjectPushD0Ev@Base 5.2.50
 _ZN7BluezQt14ObexObjectPushD1Ev@Base 5.2.50
 _ZN7BluezQt14ObexObjectPushD2Ev@Base 5.2.50
 _ZN7BluezQt15GattApplication11qt_metacallEN11QMetaObject4CallEiPPv@Base 5.61.0
 _ZN7BluezQt15GattApplication11qt_metacastEPKc@Base 5.61.0
 _ZN7BluezQt15GattApplication16staticMetaObjectE@Base 5.61.0
 _ZN7BluezQt15GattApplicationC1EP7QObject@Base 5.61.0
 _ZN7BluezQt15GattApplicationC1ERK7QStringP7QObject@Base 5.61.0
 _ZN7BluezQt15GattApplicationC2EP7QObject@Base 5.61.0
 _ZN7BluezQt15GattApplicationC2ERK7QStringP7QObject@Base 5.61.0
 _ZN7BluezQt15GattApplicationD0Ev@Base 5.61.0
 _ZN7BluezQt15GattApplicationD1Ev@Base 5.61.0
 _ZN7BluezQt15GattApplicationD2Ev@Base 5.61.0
 _ZN7BluezQt15LEAdvertisement11qt_metacallEN11QMetaObject4CallEiPPv@Base 5.61.0
 _ZN7BluezQt15LEAdvertisement11qt_metacastEPKc@Base 5.61.0
 _ZN7BluezQt15LEAdvertisement14setServiceDataERK5QHashI7QString10QByteArrayE@Base 5.77.0
 _ZN7BluezQt15LEAdvertisement16staticMetaObjectE@Base 5.61.0
 _ZN7BluezQt15LEAdvertisement7releaseEv@Base 5.61.0
 _ZN7BluezQt15LEAdvertisementC1ERK11QStringListP7QObject@Base 5.61.0
 _ZN7BluezQt15LEAdvertisementC2ERK11QStringListP7QObject@Base 5.61.0
 _ZN7BluezQt15LEAdvertisementD0Ev@Base 5.61.0
 _ZN7BluezQt15LEAdvertisementD1Ev@Base 5.61.0
 _ZN7BluezQt15LEAdvertisementD2Ev@Base 5.61.0
 _ZN7BluezQt16MediaPlayerTrackC1ERK4QMapI7QString8QVariantE@Base 5.13.0
 _ZN7BluezQt16MediaPlayerTrackC1ERKS0_@Base 5.13.0
 _ZN7BluezQt16MediaPlayerTrackC1Ev@Base 5.13.0
 _ZN7BluezQt16MediaPlayerTrackC2ERK4QMapI7QString8QVariantE@Base 5.13.0
 _ZN7BluezQt16MediaPlayerTrackC2ERKS0_@Base 5.13.0
 _ZN7BluezQt16MediaPlayerTrackC2Ev@Base 5.13.0
 _ZN7BluezQt16MediaPlayerTrackD0Ev@Base 5.13.0
 _ZN7BluezQt16MediaPlayerTrackD1Ev@Base 5.13.0
 _ZN7BluezQt16MediaPlayerTrackD2Ev@Base 5.13.0
 _ZN7BluezQt16MediaPlayerTrackaSERKS0_@Base 5.13.0
 _ZN7BluezQt16ObexFileTransfer10deleteFileERK7QString@Base 5.2.50
 _ZN7BluezQt16ObexFileTransfer10listFolderEv@Base 5.2.50
 _ZN7BluezQt16ObexFileTransfer11qt_metacallEN11QMetaObject4CallEiPPv@Base 5.2.50
 _ZN7BluezQt16ObexFileTransfer11qt_metacastEPKc@Base 5.2.50
 _ZN7BluezQt16ObexFileTransfer12changeFolderERK7QString@Base 5.2.50
 _ZN7BluezQt16ObexFileTransfer12createFolderERK7QString@Base 5.2.50
 _ZN7BluezQt16ObexFileTransfer16staticMetaObjectE@Base 5.2.50
 _ZN7BluezQt16ObexFileTransfer7getFileERK7QStringS3_@Base 5.2.50
 _ZN7BluezQt16ObexFileTransfer7putFileERK7QStringS3_@Base 5.2.50
 _ZN7BluezQt16ObexFileTransfer8copyFileERK7QStringS3_@Base 5.2.50
 _ZN7BluezQt16ObexFileTransfer8moveFileERK7QStringS3_@Base 5.2.50
 _ZN7BluezQt16ObexFileTransferC1ERK15QDBusObjectPathP7QObject@Base 5.2.50
 _ZN7BluezQt16ObexFileTransferC2ERK15QDBusObjectPathP7QObject@Base 5.2.50
 _ZN7BluezQt16ObexFileTransferD0Ev@Base 5.2.50
 _ZN7BluezQt16ObexFileTransferD1Ev@Base 5.2.50
 _ZN7BluezQt16ObexFileTransferD2Ev@Base 5.2.50
 _ZN7BluezQt18GattCharacteristic10writeValueERK10QByteArray@Base 5.61.0
 _ZN7BluezQt18GattCharacteristic11qt_metacallEN11QMetaObject4CallEiPPv@Base 5.61.0
 _ZN7BluezQt18GattCharacteristic11qt_metacastEPKc@Base 5.61.0
 _ZN7BluezQt18GattCharacteristic12valueWrittenERK10QByteArray@Base 5.61.0
 _ZN7BluezQt18GattCharacteristic15setReadCallbackESt8functionIF10QByteArrayvEE@Base 5.61.0
 _ZN7BluezQt18GattCharacteristic16staticMetaObjectE@Base 5.61.0
 _ZN7BluezQt18GattCharacteristic9readValueEv@Base 5.61.0
 _ZN7BluezQt18GattCharacteristicC1ERK7QStringPNS_11GattServiceE@Base 5.61.0
 _ZN7BluezQt18GattCharacteristicC2ERK7QStringPNS_11GattServiceE@Base 5.61.0
 _ZN7BluezQt18GattCharacteristicD0Ev@Base 5.61.0
 _ZN7BluezQt18GattCharacteristicD1Ev@Base 5.61.0
 _ZN7BluezQt18GattCharacteristicD2Ev@Base 5.61.0
 _ZN7BluezQt18InitObexManagerJob11qt_metacallEN11QMetaObject4CallEiPPv@Base 5.2.50
 _ZN7BluezQt18InitObexManagerJob11qt_metacastEPKc@Base 5.2.50
 _ZN7BluezQt18InitObexManagerJob12doEmitResultEv@Base 5.2.50
 _ZN7BluezQt18InitObexManagerJob16staticMetaObjectE@Base 5.2.50
 _ZN7BluezQt18InitObexManagerJob6resultEPS0_@Base 5.2.50
 _ZN7BluezQt18InitObexManagerJob7doStartEv@Base 5.2.50
 _ZN7BluezQt18InitObexManagerJobC1EPNS_11ObexManagerE@Base 5.2.50
 _ZN7BluezQt18InitObexManagerJobC2EPNS_11ObexManagerE@Base 5.2.50
 _ZN7BluezQt18InitObexManagerJobD0Ev@Base 5.2.50
 _ZN7BluezQt18InitObexManagerJobD1Ev@Base 5.2.50
 _ZN7BluezQt18InitObexManagerJobD2Ev@Base 5.2.50
 _ZN7BluezQt20LEAdvertisingManager11qt_metacallEN11QMetaObject4CallEiPPv@Base 5.61.0
 _ZN7BluezQt20LEAdvertisingManager11qt_metacastEPKc@Base 5.61.0
 _ZN7BluezQt20LEAdvertisingManager16staticMetaObjectE@Base 5.61.0
 _ZN7BluezQt20LEAdvertisingManager21registerAdvertisementEPNS_15LEAdvertisementE@Base 5.61.0
 _ZN7BluezQt20LEAdvertisingManager23unregisterAdvertisementEPNS_15LEAdvertisementE@Base 5.61.0
 _ZN7BluezQt20LEAdvertisingManagerC1ERK7QStringP7QObject@Base 5.61.0
 _ZN7BluezQt20LEAdvertisingManagerC2ERK7QStringP7QObject@Base 5.61.0
 _ZN7BluezQt20LEAdvertisingManagerD0Ev@Base 5.61.0
 _ZN7BluezQt20LEAdvertisingManagerD1Ev@Base 5.61.0
 _ZN7BluezQt20LEAdvertisingManagerD2Ev@Base 5.61.0
 _ZN7BluezQt21ObexFileTransferEntryC1ERK4QMapI7QString8QVariantE@Base 5.13.0
 _ZN7BluezQt21ObexFileTransferEntryC1ERKS0_@Base 5.13.0
 _ZN7BluezQt21ObexFileTransferEntryC1Ev@Base 5.13.0
 _ZN7BluezQt21ObexFileTransferEntryC2ERK4QMapI7QString8QVariantE@Base 5.13.0
 _ZN7BluezQt21ObexFileTransferEntryC2ERKS0_@Base 5.13.0
 _ZN7BluezQt21ObexFileTransferEntryC2Ev@Base 5.13.0
 _ZN7BluezQt21ObexFileTransferEntryD0Ev@Base 5.13.0
 _ZN7BluezQt21ObexFileTransferEntryD1Ev@Base 5.13.0
 _ZN7BluezQt21ObexFileTransferEntryD2Ev@Base 5.13.0
 _ZN7BluezQt21ObexFileTransferEntryaSERKS0_@Base 5.13.0
 _ZN7BluezQt28bluezqt_initFakeBluezTestRunEv@Base 5.2.50
 _ZN7BluezQt3Job10emitResultEv@Base 5.2.50
 _ZN7BluezQt3Job11qt_metacallEN11QMetaObject4CallEiPPv@Base 5.2.50
 _ZN7BluezQt3Job11qt_metacastEPKc@Base 5.2.50
 _ZN7BluezQt3Job12setErrorTextERK7QString@Base 5.2.50
 _ZN7BluezQt3Job16staticMetaObjectE@Base 5.2.50
 _ZN7BluezQt3Job4execEv@Base 5.2.50
 _ZN7BluezQt3Job4killEv@Base 5.2.50
 _ZN7BluezQt3Job5startEv@Base 5.2.50
 _ZN7BluezQt3Job8setErrorEi@Base 5.2.50
 _ZN7BluezQt3JobC1EP7QObject@Base 5.2.50
 _ZN7BluezQt3JobC2EP7QObject@Base 5.2.50
 _ZN7BluezQt3JobD0Ev@Base 5.2.50
 _ZN7BluezQt3JobD1Ev@Base 5.2.50
 _ZN7BluezQt3JobD2Ev@Base 5.2.50
 _ZN7BluezQt5Agent11qt_metacallEN11QMetaObject4CallEiPPv@Base 5.2.50
 _ZN7BluezQt5Agent11qt_metacastEPKc@Base 5.2.50
 _ZN7BluezQt5Agent14displayPasskeyE14QSharedPointerINS_6DeviceEERK7QStringS6_@Base 5.2.50
 _ZN7BluezQt5Agent14displayPinCodeE14QSharedPointerINS_6DeviceEERK7QString@Base 5.2.50
 _ZN7BluezQt5Agent14requestPasskeyE14QSharedPointerINS_6DeviceEERKNS_7RequestIjEE@Base 5.2.50
 _ZN7BluezQt5Agent14requestPinCodeE14QSharedPointerINS_6DeviceEERKNS_7RequestI7QStringEE@Base 5.2.50
 _ZN7BluezQt5Agent16authorizeServiceE14QSharedPointerINS_6DeviceEERK7QStringRKNS_7RequestIvEE@Base 5.2.50
 _ZN7BluezQt5Agent16staticMetaObjectE@Base 5.2.50
 _ZN7BluezQt5Agent19requestConfirmationE14QSharedPointerINS_6DeviceEERK7QStringRKNS_7RequestIvEE@Base 5.2.50
 _ZN7BluezQt5Agent20requestAuthorizationE14QSharedPointerINS_6DeviceEERKNS_7RequestIvEE@Base 5.2.50
 _ZN7BluezQt5Agent6cancelEv@Base 5.2.50
 _ZN7BluezQt5Agent7releaseEv@Base 5.2.50
 _ZN7BluezQt5AgentC1EP7QObject@Base 5.2.50
 _ZN7BluezQt5AgentC2EP7QObject@Base 5.2.50
 _ZN7BluezQt5Input11qt_metacallEN11QMetaObject4CallEiPPv@Base 5.13.0
 _ZN7BluezQt5Input11qt_metacastEPKc@Base 5.13.0
 _ZN7BluezQt5Input16staticMetaObjectE@Base 5.13.0
 _ZN7BluezQt5Input20reconnectModeChangedENS0_13ReconnectModeE@Base 5.13.0
 _ZN7BluezQt5InputC1ERK7QStringRK4QMapIS1_8QVariantE@Base 5.13.0
 _ZN7BluezQt5InputC2ERK7QStringRK4QMapIS1_8QVariantE@Base 5.13.0
 _ZN7BluezQt5InputD0Ev@Base 5.13.0
 _ZN7BluezQt5InputD1Ev@Base 5.13.0
 _ZN7BluezQt5InputD2Ev@Base 5.13.0
 _ZN7BluezQt5Media11qt_metacallEN11QMetaObject4CallEiPPv@Base 5.51.0
 _ZN7BluezQt5Media11qt_metacastEPKc@Base 5.51.0
 _ZN7BluezQt5Media16registerEndpointEPNS_13MediaEndpointE@Base 5.51.0
 _ZN7BluezQt5Media16staticMetaObjectE@Base 5.51.0
 _ZN7BluezQt5Media18unregisterEndpointEPNS_13MediaEndpointE@Base 5.51.0
 _ZN7BluezQt5MediaC1ERK7QStringP7QObject@Base 5.51.0
 _ZN7BluezQt5MediaC2ERK7QStringP7QObject@Base 5.51.0
 _ZN7BluezQt5MediaD0Ev@Base 5.51.0
 _ZN7BluezQt5MediaD1Ev@Base 5.51.0
 _ZN7BluezQt5MediaD2Ev@Base 5.51.0
 _ZN7BluezQt6Device10setBlockedEb@Base 5.2.50
 _ZN7BluezQt6Device10setTrustedEb@Base 5.2.50
 _ZN7BluezQt6Device11iconChangedERK7QString@Base 5.2.50
 _ZN7BluezQt6Device11nameChangedERK7QString@Base 5.2.50
 _ZN7BluezQt6Device11qt_metacallEN11QMetaObject4CallEiPPv@Base 5.2.50
 _ZN7BluezQt6Device11qt_metacastEPKc@Base 5.2.50
 _ZN7BluezQt6Device11rssiChangedEs@Base 5.2.50
 _ZN7BluezQt6Device11typeChangedENS0_4TypeE@Base 5.13.0
 _ZN7BluezQt6Device12inputChangedE14QSharedPointerINS_5InputEE@Base 5.13.0
 _ZN7BluezQt6Device12stringToTypeERK7QString@Base 5.2.50
 _ZN7BluezQt6Device12typeToStringENS0_4TypeE@Base 5.13.0
 _ZN7BluezQt6Device12uuidsChangedERK11QStringList@Base 5.2.50
 _ZN7BluezQt6Device13cancelPairingEv@Base 5.2.50
 _ZN7BluezQt6Device13deviceChangedE14QSharedPointerIS0_E@Base 5.2.50
 _ZN7BluezQt6Device13deviceRemovedE14QSharedPointerIS0_E@Base 5.2.50
 _ZN7BluezQt6Device13pairedChangedEb@Base 5.2.50
 _ZN7BluezQt6Device14addressChangedERK7QString@Base 5.49.0
 _ZN7BluezQt6Device14batteryChangedE14QSharedPointerINS_7BatteryEE@Base 5.69.0
 _ZN7BluezQt6Device14blockedChangedEb@Base 5.2.50
 _ZN7BluezQt6Device14connectProfileERK7QString@Base 5.2.50
 _ZN7BluezQt6Device14trustedChangedEb@Base 5.2.50
 _ZN7BluezQt6Device15connectToDeviceEv@Base 5.13.0
 _ZN7BluezQt6Device15modaliasChangedERK7QString@Base 5.2.50
 _ZN7BluezQt6Device16connectedChangedEb@Base 5.2.50
 _ZN7BluezQt6Device16staticMetaObjectE@Base 5.2.50
 _ZN7BluezQt6Device17appearanceChangedEt@Base 5.2.50
 _ZN7BluezQt6Device17disconnectProfileERK7QString@Base 5.2.50
 _ZN7BluezQt6Device17remoteNameChangedERK7QString@Base 5.2.50
 _ZN7BluezQt6Device18deviceClassChangedEj@Base 5.2.50
 _ZN7BluezQt6Device18mediaPlayerChangedE14QSharedPointerINS_11MediaPlayerEE@Base 5.13.0
 _ZN7BluezQt6Device18serviceDataChangedERK5QHashI7QString10QByteArrayE@Base 5.74.0
 _ZN7BluezQt6Device19friendlyNameChangedERK7QString@Base 5.2.50
 _ZN7BluezQt6Device20disconnectFromDeviceEv@Base 5.13.0
 _ZN7BluezQt6Device20legacyPairingChangedEb@Base 5.2.50
 _ZN7BluezQt6Device21mediaTransportChangedE14QSharedPointerINS_14MediaTransportEE@Base 5.61.0
 _ZN7BluezQt6Device4pairEv@Base 5.2.50
 _ZN7BluezQt6Device7setNameERK7QString@Base 5.2.50
 _ZN7BluezQt6DeviceC1ERK7QStringRK4QMapIS1_8QVariantE14QSharedPointerINS_7AdapterEE@Base 5.2.50
 _ZN7BluezQt6DeviceC2ERK7QStringRK4QMapIS1_8QVariantE14QSharedPointerINS_7AdapterEE@Base 5.2.50
 _ZN7BluezQt6DeviceD0Ev@Base 5.2.50
 _ZN7BluezQt6DeviceD1Ev@Base 5.2.50
 _ZN7BluezQt6DeviceD2Ev@Base 5.2.50
 _ZN7BluezQt6Rfkill11qt_metacallEN11QMetaObject4CallEiPPv@Base 5.77.0
 _ZN7BluezQt6Rfkill11qt_metacastEPKc@Base 5.77.0
 _ZN7BluezQt6Rfkill12devReadyReadEv@Base 5.77.0
 _ZN7BluezQt6Rfkill12setSoftBlockEh@Base 5.77.0
 _ZN7BluezQt6Rfkill12stateChangedENS0_5StateE@Base 5.77.0
 _ZN7BluezQt6Rfkill14openForWritingEv@Base 5.77.0
 _ZN7BluezQt6Rfkill16staticMetaObjectE@Base 5.77.0
 _ZN7BluezQt6Rfkill19updateRfkillDevicesEv@Base 5.77.0
 _ZN7BluezQt6Rfkill4initEv@Base 5.77.0
 _ZN7BluezQt6Rfkill5blockEv@Base 5.77.0
 _ZN7BluezQt6Rfkill7unblockEv@Base 5.77.0
 _ZN7BluezQt6RfkillC1EP7QObject@Base 5.77.0
 _ZN7BluezQt6RfkillC2EP7QObject@Base 5.77.0
 _ZN7BluezQt6RfkillD0Ev@Base 5.77.0
 _ZN7BluezQt6RfkillD1Ev@Base 5.77.0
 _ZN7BluezQt6RfkillD2Ev@Base 5.77.0
 _ZN7BluezQt7Adapter10setPoweredEb@Base 5.2.50
 _ZN7BluezQt7Adapter11deviceAddedE14QSharedPointerINS_6DeviceEE@Base 5.2.50
 _ZN7BluezQt7Adapter11nameChangedERK7QString@Base 5.2.50
 _ZN7BluezQt7Adapter11qt_metacallEN11QMetaObject4CallEiPPv@Base 5.2.50
 _ZN7BluezQt7Adapter11qt_metacastEPKc@Base 5.2.50
 _ZN7BluezQt7Adapter11setPairableEb@Base 5.2.50
 _ZN7BluezQt7Adapter12mediaChangedE14QSharedPointerINS_5MediaEE@Base 5.61.0
 _ZN7BluezQt7Adapter12removeDeviceE14QSharedPointerINS_6DeviceEE@Base 5.2.50
 _ZN7BluezQt7Adapter12uuidsChangedERK11QStringList@Base 5.2.50
 _ZN7BluezQt7Adapter13deviceChangedE14QSharedPointerINS_6DeviceEE@Base 5.2.50
 _ZN7BluezQt7Adapter13deviceRemovedE14QSharedPointerINS_6DeviceEE@Base 5.2.50
 _ZN7BluezQt7Adapter13isDiscoveringEv@Base 5.2.50
 _ZN7BluezQt7Adapter13stopDiscoveryEv@Base 5.2.50
 _ZN7BluezQt7Adapter14adapterChangedE14QSharedPointerIS0_E@Base 5.2.50
 _ZN7BluezQt7Adapter14adapterRemovedE14QSharedPointerIS0_E@Base 5.2.50
 _ZN7BluezQt7Adapter14poweredChangedEb@Base 5.2.50
 _ZN7BluezQt7Adapter14startDiscoveryEv@Base 5.2.50
 _ZN7BluezQt7Adapter15modaliasChangedERK7QString@Base 5.2.50
 _ZN7BluezQt7Adapter15pairableChangedEb@Base 5.2.50
 _ZN7BluezQt7Adapter15setDiscoverableEb@Base 5.2.50
 _ZN7BluezQt7Adapter16staticMetaObjectE@Base 5.2.50
 _ZN7BluezQt7Adapter17systemNameChangedERK7QString@Base 5.2.50
 _ZN7BluezQt7Adapter18discoveringChangedEb@Base 5.2.50
 _ZN7BluezQt7Adapter18gattManagerChangedE14QSharedPointerINS_11GattManagerEE@Base 5.61.0
 _ZN7BluezQt7Adapter18setPairableTimeoutEj@Base 5.2.50
 _ZN7BluezQt7Adapter19adapterClassChangedEj@Base 5.2.50
 _ZN7BluezQt7Adapter19discoverableChangedEb@Base 5.2.50
 _ZN7BluezQt7Adapter22pairableTimeoutChangedEj@Base 5.2.50
 _ZN7BluezQt7Adapter22setDiscoverableTimeoutEj@Base 5.2.50
 _ZN7BluezQt7Adapter26discoverableTimeoutChangedEj@Base 5.2.50
 _ZN7BluezQt7Adapter27leAdvertisingManagerChangedE14QSharedPointerINS_20LEAdvertisingManagerEE@Base 5.61.0
 _ZN7BluezQt7Adapter7setNameERK7QString@Base 5.2.50
 _ZN7BluezQt7AdapterC1ERK7QStringRK4QMapIS1_8QVariantE@Base 5.2.50
 _ZN7BluezQt7AdapterC2ERK7QStringRK4QMapIS1_8QVariantE@Base 5.2.50
 _ZN7BluezQt7AdapterD0Ev@Base 5.2.50
 _ZN7BluezQt7AdapterD1Ev@Base 5.2.50
 _ZN7BluezQt7AdapterD2Ev@Base 5.2.50
 _ZN7BluezQt7Battery11qt_metacallEN11QMetaObject4CallEiPPv@Base 5.69.0
 _ZN7BluezQt7Battery11qt_metacastEPKc@Base 5.69.0
 _ZN7BluezQt7Battery16staticMetaObjectE@Base 5.69.0
 _ZN7BluezQt7Battery17percentageChangedEi@Base 5.69.0
 _ZN7BluezQt7BatteryC1ERK7QStringRK4QMapIS1_8QVariantE@Base 5.69.0
 _ZN7BluezQt7BatteryC2ERK7QStringRK4QMapIS1_8QVariantE@Base 5.69.0
 _ZN7BluezQt7BatteryD0Ev@Base 5.69.0
 _ZN7BluezQt7BatteryD1Ev@Base 5.69.0
 _ZN7BluezQt7BatteryD2Ev@Base 5.69.0
 _ZN7BluezQt7Manager11deviceAddedE14QSharedPointerINS_6DeviceEE@Base 5.2.50
 _ZN7BluezQt7Manager11qt_metacallEN11QMetaObject4CallEiPPv@Base 5.2.50
 _ZN7BluezQt7Manager11qt_metacastEPKc@Base 5.2.50
 _ZN7BluezQt7Manager12adapterAddedE14QSharedPointerINS_7AdapterEE@Base 5.2.50
 _ZN7BluezQt7Manager12startServiceEv@Base 5.2.50
 _ZN7BluezQt7Manager13deviceChangedE14QSharedPointerINS_6DeviceEE@Base 5.2.50
 _ZN7BluezQt7Manager13deviceRemovedE14QSharedPointerINS_6DeviceEE@Base 5.2.50
 _ZN7BluezQt7Manager13registerAgentEPNS_5AgentE@Base 5.2.50
 _ZN7BluezQt7Manager14adapterChangedE14QSharedPointerINS_7AdapterEE@Base 5.2.50
 _ZN7BluezQt7Manager14adapterRemovedE14QSharedPointerINS_7AdapterEE@Base 5.2.50
 _ZN7BluezQt7Manager15registerProfileEPNS_7ProfileE@Base 5.2.50
 _ZN7BluezQt7Manager15unregisterAgentEPNS_5AgentE@Base 5.2.50
 _ZN7BluezQt7Manager16staticMetaObjectE@Base 5.2.50
 _ZN7BluezQt7Manager17unregisterProfileEPNS_7ProfileE@Base 5.2.50
 _ZN7BluezQt7Manager18allAdaptersRemovedEv@Base 5.2.50
 _ZN7BluezQt7Manager18operationalChangedEb@Base 5.2.50
 _ZN7BluezQt7Manager19requestDefaultAgentEPNS_5AgentE@Base 5.2.50
 _ZN7BluezQt7Manager19setBluetoothBlockedEb@Base 5.2.50
 _ZN7BluezQt7Manager20usableAdapterChangedE14QSharedPointerINS_7AdapterEE@Base 5.2.50
 _ZN7BluezQt7Manager23bluetoothBlockedChangedEb@Base 5.2.50
 _ZN7BluezQt7Manager27bluetoothOperationalChangedEb@Base 5.2.50
 _ZN7BluezQt7Manager4initEv@Base 5.2.50
 _ZN7BluezQt7ManagerC1EP7QObject@Base 5.2.50
 _ZN7BluezQt7ManagerC2EP7QObject@Base 5.2.50
 _ZN7BluezQt7ManagerD0Ev@Base 5.2.50
 _ZN7BluezQt7ManagerD1Ev@Base 5.2.50
 _ZN7BluezQt7ManagerD2Ev@Base 5.2.50
 _ZN7BluezQt7Profile10setChannelEt@Base 5.2.50
 _ZN7BluezQt7Profile10setServiceERK7QString@Base 5.2.50
 _ZN7BluezQt7Profile10setVersionEt@Base 5.2.50
 _ZN7BluezQt7Profile11qt_metacallEN11QMetaObject4CallEiPPv@Base 5.2.50
 _ZN7BluezQt7Profile11qt_metacastEPKc@Base 5.2.50
 _ZN7BluezQt7Profile11setFeaturesEt@Base 5.2.50
 _ZN7BluezQt7Profile12createSocketERK23QDBusUnixFileDescriptor@Base 5.2.50
 _ZN7BluezQt7Profile12setLocalRoleENS0_9LocalRoleE@Base 5.2.50
 _ZN7BluezQt7Profile13newConnectionE14QSharedPointerINS_6DeviceEERK23QDBusUnixFileDescriptorRK4QMapI7QString8QVariantERKNS_7RequestIvEE@Base 5.2.50
 _ZN7BluezQt7Profile14setAutoConnectEb@Base 5.2.50
 _ZN7BluezQt7Profile16setServiceRecordERK7QString@Base 5.2.50
 _ZN7BluezQt7Profile16staticMetaObjectE@Base 5.2.50
 _ZN7BluezQt7Profile20requestDisconnectionE14QSharedPointerINS_6DeviceEERKNS_7RequestIvEE@Base 5.2.50
 _ZN7BluezQt7Profile23setRequireAuthorizationEb@Base 5.2.50
 _ZN7BluezQt7Profile24setRequireAuthenticationEb@Base 5.2.50
 _ZN7BluezQt7Profile6setPsmEt@Base 5.2.50
 _ZN7BluezQt7Profile7releaseEv@Base 5.2.50
 _ZN7BluezQt7Profile7setNameERK7QString@Base 5.2.50
 _ZN7BluezQt7ProfileC1EP7QObject@Base 5.2.50
 _ZN7BluezQt7ProfileC2EP7QObject@Base 5.2.50
 _ZN7BluezQt7ProfileD0Ev@Base 5.2.50
 _ZN7BluezQt7ProfileD1Ev@Base 5.2.50
 _ZN7BluezQt7ProfileD2Ev@Base 5.2.50
 (optional=templinst)_ZN7BluezQt7RequestI10QByteArrayEC1ENS_22RequestOriginatingTypeERK12QDBusMessage@Base 5.51.0
 (optional=templinst)_ZN7BluezQt7RequestI10QByteArrayEC1ERKS2_@Base 5.51.0
 (optional=templinst)_ZN7BluezQt7RequestI10QByteArrayEC1Ev@Base 5.51.0
 (optional=templinst)_ZN7BluezQt7RequestI10QByteArrayEC2ENS_22RequestOriginatingTypeERK12QDBusMessage@Base 5.51.0
 (optional=templinst)_ZN7BluezQt7RequestI10QByteArrayEC2ERKS2_@Base 5.51.0
 (optional=templinst)_ZN7BluezQt7RequestI10QByteArrayEC2Ev@Base 5.51.0
 (optional=templinst)_ZN7BluezQt7RequestI10QByteArrayED0Ev@Base 5.51.0
 (optional=templinst)_ZN7BluezQt7RequestI10QByteArrayED1Ev@Base 5.51.0
 (optional=templinst)_ZN7BluezQt7RequestI10QByteArrayED2Ev@Base 5.51.0
 (optional=templinst)_ZN7BluezQt7RequestI10QByteArrayEaSERKS2_@Base 5.51.0
 (optional=templinst)_ZN7BluezQt7RequestI7QStringEC1ENS_22RequestOriginatingTypeERK12QDBusMessage@Base 5.2.50
 (optional=templinst)_ZN7BluezQt7RequestI7QStringEC1ERKS2_@Base 5.2.50
 (optional=templinst)_ZN7BluezQt7RequestI7QStringEC1Ev@Base 5.2.50
 (optional=templinst)_ZN7BluezQt7RequestI7QStringEC2ENS_22RequestOriginatingTypeERK12QDBusMessage@Base 5.2.50
 (optional=templinst)_ZN7BluezQt7RequestI7QStringEC2ERKS2_@Base 5.2.50
 (optional=templinst)_ZN7BluezQt7RequestI7QStringEC2Ev@Base 5.2.50
 (optional=templinst)_ZN7BluezQt7RequestI7QStringED0Ev@Base 5.2.50
 (optional=templinst)_ZN7BluezQt7RequestI7QStringED1Ev@Base 5.2.50
 (optional=templinst)_ZN7BluezQt7RequestI7QStringED2Ev@Base 5.2.50
 (optional=templinst)_ZN7BluezQt7RequestI7QStringEaSERKS2_@Base 5.2.50
 (optional=templinst)_ZN7BluezQt7RequestIjEC1ENS_22RequestOriginatingTypeERK12QDBusMessage@Base 5.2.50
 (optional=templinst)_ZN7BluezQt7RequestIjEC1ERKS1_@Base 5.2.50
 (optional=templinst)_ZN7BluezQt7RequestIjEC1Ev@Base 5.2.50
 (optional=templinst)_ZN7BluezQt7RequestIjEC2ENS_22RequestOriginatingTypeERK12QDBusMessage@Base 5.2.50
 (optional=templinst)_ZN7BluezQt7RequestIjEC2ERKS1_@Base 5.2.50
 (optional=templinst)_ZN7BluezQt7RequestIjEC2Ev@Base 5.2.50
 (optional=templinst)_ZN7BluezQt7RequestIjED0Ev@Base 5.2.50
 (optional=templinst)_ZN7BluezQt7RequestIjED1Ev@Base 5.2.50
 (optional=templinst)_ZN7BluezQt7RequestIjED2Ev@Base 5.2.50
 (optional=templinst)_ZN7BluezQt7RequestIjEaSERKS1_@Base 5.2.50
 (optional=templinst)_ZN7BluezQt7RequestIvEC1ENS_22RequestOriginatingTypeERK12QDBusMessage@Base 5.2.50
 (optional=templinst)_ZN7BluezQt7RequestIvEC1ERKS1_@Base 5.2.50
 (optional=templinst)_ZN7BluezQt7RequestIvEC1Ev@Base 5.2.50
 (optional=templinst)_ZN7BluezQt7RequestIvEC2ENS_22RequestOriginatingTypeERK12QDBusMessage@Base 5.2.50
 (optional=templinst)_ZN7BluezQt7RequestIvEC2ERKS1_@Base 5.2.50
 (optional=templinst)_ZN7BluezQt7RequestIvEC2Ev@Base 5.2.50
 (optional=templinst)_ZN7BluezQt7RequestIvED0Ev@Base 5.2.50
 (optional=templinst)_ZN7BluezQt7RequestIvED1Ev@Base 5.2.50
 (optional=templinst)_ZN7BluezQt7RequestIvED2Ev@Base 5.2.50
 (optional=templinst)_ZN7BluezQt7RequestIvEaSERKS1_@Base 5.2.50
 _ZN7BluezQt9ObexAgent11qt_metacallEN11QMetaObject4CallEiPPv@Base 5.2.50
 _ZN7BluezQt9ObexAgent11qt_metacastEPKc@Base 5.2.50
 _ZN7BluezQt9ObexAgent13authorizePushE14QSharedPointerINS_12ObexTransferEES1_INS_11ObexSessionEERKNS_7RequestI7QStringEE@Base 5.13.0
 _ZN7BluezQt9ObexAgent16staticMetaObjectE@Base 5.2.50
 _ZN7BluezQt9ObexAgent6cancelEv@Base 5.2.50
 _ZN7BluezQt9ObexAgent7releaseEv@Base 5.2.50
 _ZN7BluezQt9ObexAgentC1EP7QObject@Base 5.2.50
 _ZN7BluezQt9ObexAgentC2EP7QObject@Base 5.2.50
 _ZNK7BluezQt11GattManager10metaObjectEv@Base 5.61.0
 _ZNK7BluezQt11GattService10metaObjectEv@Base 5.61.0
 _ZNK7BluezQt11GattService10objectPathEv@Base 5.61.0
 _ZNK7BluezQt11GattService4uuidEv@Base 5.61.0
 _ZNK7BluezQt11GattService9isPrimaryEv@Base 5.61.0
 _ZNK7BluezQt11MediaPlayer10metaObjectEv@Base 5.13.0
 _ZNK7BluezQt11MediaPlayer11toSharedPtrEv@Base 5.13.0
 _ZNK7BluezQt11MediaPlayer4nameEv@Base 5.13.0
 _ZNK7BluezQt11MediaPlayer5trackEv@Base 5.13.0
 _ZNK7BluezQt11MediaPlayer6repeatEv@Base 5.13.0
 _ZNK7BluezQt11MediaPlayer6statusEv@Base 5.13.0
 _ZNK7BluezQt11MediaPlayer7shuffleEv@Base 5.13.0
 _ZNK7BluezQt11MediaPlayer8positionEv@Base 5.13.0
 _ZNK7BluezQt11MediaPlayer9equalizerEv@Base 5.13.0
 _ZNK7BluezQt11ObexManager10metaObjectEv@Base 5.2.50
 _ZNK7BluezQt11ObexManager13isInitializedEv@Base 5.2.50
 _ZNK7BluezQt11ObexManager13isOperationalEv@Base 5.2.50
 _ZNK7BluezQt11ObexManager14sessionForPathERK15QDBusObjectPath@Base 5.13.0
 _ZNK7BluezQt11ObexManager8sessionsEv@Base 5.13.0
 _ZNK7BluezQt11ObexSession10metaObjectEv@Base 5.2.50
 _ZNK7BluezQt11ObexSession10objectPathEv@Base 5.13.0
 _ZNK7BluezQt11ObexSession11destinationEv@Base 5.2.50
 _ZNK7BluezQt11ObexSession11toSharedPtrEv@Base 5.13.0
 _ZNK7BluezQt11ObexSession4rootEv@Base 5.2.50
 _ZNK7BluezQt11ObexSession6sourceEv@Base 5.2.50
 _ZNK7BluezQt11ObexSession6targetEv@Base 5.2.50
 _ZNK7BluezQt11ObexSession7channelEv@Base 5.2.50
 _ZNK7BluezQt11PendingCall10isFinishedEv@Base 5.2.50
 _ZNK7BluezQt11PendingCall10metaObjectEv@Base 5.2.50
 _ZNK7BluezQt11PendingCall5errorEv@Base 5.2.50
 _ZNK7BluezQt11PendingCall5valueEv@Base 5.2.50
 _ZNK7BluezQt11PendingCall6valuesEv@Base 5.2.50
 _ZNK7BluezQt11PendingCall8userDataEv@Base 5.2.50
 _ZNK7BluezQt11PendingCall9errorTextEv@Base 5.2.50
 _ZNK7BluezQt12DevicesModel10metaObjectEv@Base 5.2.50
 _ZNK7BluezQt12DevicesModel4dataERK11QModelIndexi@Base 5.2.50
 _ZNK7BluezQt12DevicesModel5indexEiiRK11QModelIndex@Base 5.2.50
 _ZNK7BluezQt12DevicesModel6deviceERK11QModelIndex@Base 5.2.50
 _ZNK7BluezQt12DevicesModel8rowCountERK11QModelIndex@Base 5.2.50
 _ZNK7BluezQt12DevicesModel9roleNamesEv@Base 5.2.50
 _ZNK7BluezQt12ObexTransfer10metaObjectEv@Base 5.2.50
 _ZNK7BluezQt12ObexTransfer10objectPathEv@Base 5.2.50
 _ZNK7BluezQt12ObexTransfer11toSharedPtrEv@Base 5.2.50
 _ZNK7BluezQt12ObexTransfer11transferredEv@Base 5.2.50
 _ZNK7BluezQt12ObexTransfer13isSuspendableEv@Base 5.2.50
 _ZNK7BluezQt12ObexTransfer4nameEv@Base 5.2.50
 _ZNK7BluezQt12ObexTransfer4sizeEv@Base 5.2.50
 _ZNK7BluezQt12ObexTransfer4timeEv@Base 5.2.50
 _ZNK7BluezQt12ObexTransfer4typeEv@Base 5.2.50
 _ZNK7BluezQt12ObexTransfer6statusEv@Base 5.2.50
 _ZNK7BluezQt12ObexTransfer8fileNameEv@Base 5.2.50
 _ZNK7BluezQt13MediaEndpoint10metaObjectEv@Base 5.51.0
 _ZNK7BluezQt13MediaEndpoint10objectPathEv@Base 5.51.0
 _ZNK7BluezQt13MediaEndpoint10propertiesEv@Base 5.51.0
 _ZNK7BluezQt14InitManagerJob10metaObjectEv@Base 5.2.50
 _ZNK7BluezQt14InitManagerJob7managerEv@Base 5.2.50
 _ZNK7BluezQt14MediaTransport10metaObjectEv@Base 5.61.0
 _ZNK7BluezQt14MediaTransport18audioConfigurationEv@Base 5.61.0
 _ZNK7BluezQt14MediaTransport5stateEv@Base 5.61.0
 _ZNK7BluezQt14MediaTransport6volumeEv@Base 5.61.0
 _ZNK7BluezQt14ObexObjectPush10metaObjectEv@Base 5.2.50
 _ZNK7BluezQt14ObexObjectPush10objectPathEv@Base 5.2.50
 _ZNK7BluezQt15GattApplication10metaObjectEv@Base 5.61.0
 _ZNK7BluezQt15GattApplication10objectPathEv@Base 5.61.0
 _ZNK7BluezQt15LEAdvertisement10metaObjectEv@Base 5.61.0
 _ZNK7BluezQt15LEAdvertisement10objectPathEv@Base 5.61.0
 _ZNK7BluezQt15LEAdvertisement11serviceDataEv@Base 5.77.0
 _ZNK7BluezQt15LEAdvertisement12serviceUuidsEv@Base 5.61.0
 _ZNK7BluezQt16MediaPlayerTrack11trackNumberEv@Base 5.13.0
 _ZNK7BluezQt16MediaPlayerTrack14numberOfTracksEv@Base 5.13.0
 _ZNK7BluezQt16MediaPlayerTrack5albumEv@Base 5.13.0
 _ZNK7BluezQt16MediaPlayerTrack5genreEv@Base 5.13.0
 _ZNK7BluezQt16MediaPlayerTrack5titleEv@Base 5.13.0
 _ZNK7BluezQt16MediaPlayerTrack6artistEv@Base 5.13.0
 _ZNK7BluezQt16MediaPlayerTrack7isValidEv@Base 5.13.0
 _ZNK7BluezQt16MediaPlayerTrack8durationEv@Base 5.13.0
 _ZNK7BluezQt16ObexFileTransfer10metaObjectEv@Base 5.2.50
 _ZNK7BluezQt16ObexFileTransfer10objectPathEv@Base 5.2.50
 _ZNK7BluezQt18GattCharacteristic10metaObjectEv@Base 5.61.0
 _ZNK7BluezQt18GattCharacteristic10objectPathEv@Base 5.61.0
 _ZNK7BluezQt18GattCharacteristic4uuidEv@Base 5.61.0
 _ZNK7BluezQt18GattCharacteristic7serviceEv@Base 5.61.0
 _ZNK7BluezQt18InitObexManagerJob10metaObjectEv@Base 5.2.50
 _ZNK7BluezQt18InitObexManagerJob7managerEv@Base 5.2.50
 _ZNK7BluezQt20LEAdvertisingManager10metaObjectEv@Base 5.61.0
 _ZNK7BluezQt21ObexFileTransferEntry10memoryTypeEv@Base 5.13.0
 _ZNK7BluezQt21ObexFileTransferEntry11permissionsEv@Base 5.13.0
 _ZNK7BluezQt21ObexFileTransferEntry16modificationTimeEv@Base 5.13.0
 _ZNK7BluezQt21ObexFileTransferEntry4nameEv@Base 5.13.0
 _ZNK7BluezQt21ObexFileTransferEntry4sizeEv@Base 5.13.0
 _ZNK7BluezQt21ObexFileTransferEntry4typeEv@Base 5.13.0
 _ZNK7BluezQt21ObexFileTransferEntry5labelEv@Base 5.13.0
 _ZNK7BluezQt21ObexFileTransferEntry7isValidEv@Base 5.13.0
 _ZNK7BluezQt3Job10isFinishedEv@Base 5.2.50
 _ZNK7BluezQt3Job10metaObjectEv@Base 5.2.50
 _ZNK7BluezQt3Job5errorEv@Base 5.2.50
 _ZNK7BluezQt3Job9errorTextEv@Base 5.2.50
 _ZNK7BluezQt3Job9isRunningEv@Base 5.2.50
 _ZNK7BluezQt5Agent10capabilityEv@Base 5.2.50
 _ZNK7BluezQt5Agent10metaObjectEv@Base 5.2.50
 _ZNK7BluezQt5Input10metaObjectEv@Base 5.13.0
 _ZNK7BluezQt5Input11toSharedPtrEv@Base 5.13.0
 _ZNK7BluezQt5Input13reconnectModeEv@Base 5.13.0
 _ZNK7BluezQt5Media10metaObjectEv@Base 5.51.0
 _ZNK7BluezQt6Device10appearanceEv@Base 5.2.50
 _ZNK7BluezQt6Device10metaObjectEv@Base 5.2.50
 _ZNK7BluezQt6Device10remoteNameEv@Base 5.2.50
 _ZNK7BluezQt6Device11deviceClassEv@Base 5.2.50
 _ZNK7BluezQt6Device11isConnectedEv@Base 5.2.50
 _ZNK7BluezQt6Device11mediaPlayerEv@Base 5.13.0
 _ZNK7BluezQt6Device11serviceDataEv@Base 5.74.0
 _ZNK7BluezQt6Device11toSharedPtrEv@Base 5.2.50
 _ZNK7BluezQt6Device12friendlyNameEv@Base 5.2.50
 _ZNK7BluezQt6Device14mediaTransportEv@Base 5.61.0
 _ZNK7BluezQt6Device16hasLegacyPairingEv@Base 5.2.50
 _ZNK7BluezQt6Device3ubiEv@Base 5.2.50
 _ZNK7BluezQt6Device4iconEv@Base 5.2.50
 _ZNK7BluezQt6Device4nameEv@Base 5.2.50
 _ZNK7BluezQt6Device4rssiEv@Base 5.2.50
 _ZNK7BluezQt6Device4typeEv@Base 5.13.0
 _ZNK7BluezQt6Device5inputEv@Base 5.13.0
 _ZNK7BluezQt6Device5uuidsEv@Base 5.2.50
 _ZNK7BluezQt6Device7adapterEv@Base 5.2.50
 _ZNK7BluezQt6Device7addressEv@Base 5.2.50
 _ZNK7BluezQt6Device7batteryEv@Base 5.69.0
 _ZNK7BluezQt6Device8isPairedEv@Base 5.2.50
 _ZNK7BluezQt6Device8modaliasEv@Base 5.2.50
 _ZNK7BluezQt6Device9isBlockedEv@Base 5.2.50
 _ZNK7BluezQt6Device9isTrustedEv@Base 5.2.50
 _ZNK7BluezQt6Rfkill10metaObjectEv@Base 5.77.0
 _ZNK7BluezQt6Rfkill5stateEv@Base 5.77.0
 _ZNK7BluezQt7Adapter10isPairableEv@Base 5.2.50
 _ZNK7BluezQt7Adapter10metaObjectEv@Base 5.2.50
 _ZNK7BluezQt7Adapter10systemNameEv@Base 5.2.50
 _ZNK7BluezQt7Adapter11gattManagerEv@Base 5.61.0
 _ZNK7BluezQt7Adapter11toSharedPtrEv@Base 5.2.50
 _ZNK7BluezQt7Adapter12adapterClassEv@Base 5.2.50
 _ZNK7BluezQt7Adapter14isDiscoverableEv@Base 5.2.50
 _ZNK7BluezQt7Adapter15pairableTimeoutEv@Base 5.2.50
 _ZNK7BluezQt7Adapter16deviceForAddressERK7QString@Base 5.2.50
 _ZNK7BluezQt7Adapter19discoverableTimeoutEv@Base 5.2.50
 _ZNK7BluezQt7Adapter20leAdvertisingManagerEv@Base 5.61.0
 _ZNK7BluezQt7Adapter3ubiEv@Base 5.2.50
 _ZNK7BluezQt7Adapter4nameEv@Base 5.2.50
 _ZNK7BluezQt7Adapter5mediaEv@Base 5.61.0
 _ZNK7BluezQt7Adapter5uuidsEv@Base 5.2.50
 _ZNK7BluezQt7Adapter7addressEv@Base 5.2.50
 _ZNK7BluezQt7Adapter7devicesEv@Base 5.2.50
 _ZNK7BluezQt7Adapter8modaliasEv@Base 5.2.50
 _ZNK7BluezQt7Adapter9isPoweredEv@Base 5.2.50
 _ZNK7BluezQt7Battery10metaObjectEv@Base 5.69.0
 _ZNK7BluezQt7Battery10percentageEv@Base 5.69.0
 _ZNK7BluezQt7Battery11toSharedPtrEv@Base 5.69.0
 _ZNK7BluezQt7Manager10metaObjectEv@Base 5.2.50
 _ZNK7BluezQt7Manager12deviceForUbiERK7QString@Base 5.2.50
 _ZNK7BluezQt7Manager13adapterForUbiERK7QString@Base 5.2.50
 _ZNK7BluezQt7Manager13isInitializedEv@Base 5.2.50
 _ZNK7BluezQt7Manager13isOperationalEv@Base 5.2.50
 _ZNK7BluezQt7Manager13usableAdapterEv@Base 5.2.50
 _ZNK7BluezQt7Manager16deviceForAddressERK7QString@Base 5.2.50
 _ZNK7BluezQt7Manager17adapterForAddressERK7QString@Base 5.2.50
 _ZNK7BluezQt7Manager18isBluetoothBlockedEv@Base 5.2.50
 _ZNK7BluezQt7Manager22isBluetoothOperationalEv@Base 5.2.50
 _ZNK7BluezQt7Manager5mediaEv@Base 5.51.0
 _ZNK7BluezQt7Manager6rfkillEv@Base 5.77.0
 _ZNK7BluezQt7Manager7devicesEv@Base 5.2.50
 _ZNK7BluezQt7Manager8adaptersEv@Base 5.2.50
 _ZNK7BluezQt7Profile10metaObjectEv@Base 5.2.50
 (optional=templinst)_ZNK7BluezQt7RequestI10QByteArrayE6acceptES1_@Base 5.51.0
 (optional=templinst)_ZNK7BluezQt7RequestI10QByteArrayE6cancelEv@Base 5.51.0
 (optional=templinst)_ZNK7BluezQt7RequestI10QByteArrayE6rejectEv@Base 5.51.0
 (optional=templinst)_ZNK7BluezQt7RequestI7QStringE6acceptES1_@Base 5.2.50
 (optional=templinst)_ZNK7BluezQt7RequestI7QStringE6cancelEv@Base 5.2.50
 (optional=templinst)_ZNK7BluezQt7RequestI7QStringE6rejectEv@Base 5.2.50
 (optional=templinst)_ZNK7BluezQt7RequestIjE6acceptEj@Base 5.2.50
 (optional=templinst)_ZNK7BluezQt7RequestIjE6cancelEv@Base 5.2.50
 (optional=templinst)_ZNK7BluezQt7RequestIjE6rejectEv@Base 5.2.50
 (optional=templinst)_ZNK7BluezQt7RequestIvE6acceptEv@Base 5.2.50
 (optional=templinst)_ZNK7BluezQt7RequestIvE6cancelEv@Base 5.2.50
 (optional=templinst)_ZNK7BluezQt7RequestIvE6rejectEv@Base 5.2.50
 _ZNK7BluezQt9ObexAgent10metaObjectEv@Base 5.2.50
 _ZTI12QDBusContext@Base 5.35.0
 _ZTIN7BluezQt11GattManagerE@Base 5.61.0
 _ZTIN7BluezQt11GattServiceE@Base 5.61.0
 _ZTIN7BluezQt11MediaPlayerE@Base 5.13.0
 _ZTIN7BluezQt11ObexManagerE@Base 5.2.50
 _ZTIN7BluezQt11ObexSessionE@Base 5.2.50
 _ZTIN7BluezQt11PendingCallE@Base 5.2.50
 _ZTIN7BluezQt12DevicesModelE@Base 5.2.50
 _ZTIN7BluezQt12ObexTransferE@Base 5.2.50
 _ZTIN7BluezQt13MediaEndpointE@Base 5.51.0
 _ZTIN7BluezQt14InitManagerJobE@Base 5.2.50
 _ZTIN7BluezQt14MediaTransportE@Base 5.61.0
 _ZTIN7BluezQt14ObexObjectPushE@Base 5.2.50
 _ZTIN7BluezQt15GattApplicationE@Base 5.61.0
 _ZTIN7BluezQt15LEAdvertisementE@Base 5.61.0
 _ZTIN7BluezQt16MediaPlayerTrackE@Base 5.13.0
 _ZTIN7BluezQt16ObexFileTransferE@Base 5.2.50
 _ZTIN7BluezQt18GattCharacteristicE@Base 5.61.0
 _ZTIN7BluezQt18InitObexManagerJobE@Base 5.2.50
 _ZTIN7BluezQt20LEAdvertisingManagerE@Base 5.61.0
 _ZTIN7BluezQt21ObexFileTransferEntryE@Base 5.13.0
 _ZTIN7BluezQt3JobE@Base 5.2.50
 _ZTIN7BluezQt5AgentE@Base 5.2.50
 _ZTIN7BluezQt5InputE@Base 5.13.0
 _ZTIN7BluezQt5MediaE@Base 5.51.0
 _ZTIN7BluezQt6DeviceE@Base 5.2.50
 _ZTIN7BluezQt6RfkillE@Base 5.77.0
 _ZTIN7BluezQt7AdapterE@Base 5.2.50
 _ZTIN7BluezQt7BatteryE@Base 5.69.0
 _ZTIN7BluezQt7ManagerE@Base 5.2.50
 _ZTIN7BluezQt7ProfileE@Base 5.2.50
 _ZTIN7BluezQt7RequestI10QByteArrayEE@Base 5.51.0
 _ZTIN7BluezQt7RequestI7QStringEE@Base 5.2.50
 _ZTIN7BluezQt7RequestIjEE@Base 5.2.50
 _ZTIN7BluezQt7RequestIvEE@Base 5.2.50
 _ZTIN7BluezQt9ObexAgentE@Base 5.2.50
 _ZTS12QDBusContext@Base 5.35.0
 _ZTSN7BluezQt11GattManagerE@Base 5.61.0
 _ZTSN7BluezQt11GattServiceE@Base 5.61.0
 _ZTSN7BluezQt11MediaPlayerE@Base 5.13.0
 _ZTSN7BluezQt11ObexManagerE@Base 5.2.50
 _ZTSN7BluezQt11ObexSessionE@Base 5.2.50
 _ZTSN7BluezQt11PendingCallE@Base 5.2.50
 _ZTSN7BluezQt12DevicesModelE@Base 5.2.50
 _ZTSN7BluezQt12ObexTransferE@Base 5.2.50
 _ZTSN7BluezQt13MediaEndpointE@Base 5.51.0
 _ZTSN7BluezQt14InitManagerJobE@Base 5.2.50
 _ZTSN7BluezQt14MediaTransportE@Base 5.61.0
 _ZTSN7BluezQt14ObexObjectPushE@Base 5.2.50
 _ZTSN7BluezQt15GattApplicationE@Base 5.61.0
 _ZTSN7BluezQt15LEAdvertisementE@Base 5.61.0
 _ZTSN7BluezQt16MediaPlayerTrackE@Base 5.13.0
 _ZTSN7BluezQt16ObexFileTransferE@Base 5.2.50
 _ZTSN7BluezQt18GattCharacteristicE@Base 5.61.0
 _ZTSN7BluezQt18InitObexManagerJobE@Base 5.2.50
 _ZTSN7BluezQt20LEAdvertisingManagerE@Base 5.61.0
 _ZTSN7BluezQt21ObexFileTransferEntryE@Base 5.13.0
 _ZTSN7BluezQt3JobE@Base 5.2.50
 _ZTSN7BluezQt5AgentE@Base 5.2.50
 _ZTSN7BluezQt5InputE@Base 5.13.0
 _ZTSN7BluezQt5MediaE@Base 5.51.0
 _ZTSN7BluezQt6DeviceE@Base 5.2.50
 _ZTSN7BluezQt6RfkillE@Base 5.77.0
 _ZTSN7BluezQt7AdapterE@Base 5.2.50
 _ZTSN7BluezQt7BatteryE@Base 5.69.0
 _ZTSN7BluezQt7ManagerE@Base 5.2.50
 _ZTSN7BluezQt7ProfileE@Base 5.2.50
 _ZTSN7BluezQt7RequestI10QByteArrayEE@Base 5.51.0
 _ZTSN7BluezQt7RequestI7QStringEE@Base 5.2.50
 _ZTSN7BluezQt7RequestIjEE@Base 5.2.50
 _ZTSN7BluezQt7RequestIvEE@Base 5.2.50
 _ZTSN7BluezQt9ObexAgentE@Base 5.2.50
 _ZTVN7BluezQt11GattManagerE@Base 5.61.0
 _ZTVN7BluezQt11GattServiceE@Base 5.61.0
 _ZTVN7BluezQt11MediaPlayerE@Base 5.13.0
 _ZTVN7BluezQt11ObexManagerE@Base 5.2.50
 _ZTVN7BluezQt11ObexSessionE@Base 5.2.50
 _ZTVN7BluezQt11PendingCallE@Base 5.2.50
 _ZTVN7BluezQt12DevicesModelE@Base 5.2.50
 _ZTVN7BluezQt12ObexTransferE@Base 5.2.50
 _ZTVN7BluezQt13MediaEndpointE@Base 5.51.0
 _ZTVN7BluezQt14InitManagerJobE@Base 5.2.50
 _ZTVN7BluezQt14MediaTransportE@Base 5.61.0
 _ZTVN7BluezQt14ObexObjectPushE@Base 5.2.50
 _ZTVN7BluezQt15GattApplicationE@Base 5.61.0
 _ZTVN7BluezQt15LEAdvertisementE@Base 5.61.0
 _ZTVN7BluezQt16MediaPlayerTrackE@Base 5.13.0
 _ZTVN7BluezQt16ObexFileTransferE@Base 5.2.50
 _ZTVN7BluezQt18GattCharacteristicE@Base 5.61.0
 _ZTVN7BluezQt18InitObexManagerJobE@Base 5.2.50
 _ZTVN7BluezQt20LEAdvertisingManagerE@Base 5.61.0
 _ZTVN7BluezQt21ObexFileTransferEntryE@Base 5.13.0
 _ZTVN7BluezQt3JobE@Base 5.2.50
 _ZTVN7BluezQt5AgentE@Base 5.2.50
 _ZTVN7BluezQt5InputE@Base 5.13.0
 _ZTVN7BluezQt5MediaE@Base 5.51.0
 _ZTVN7BluezQt6DeviceE@Base 5.2.50
 _ZTVN7BluezQt6RfkillE@Base 5.77.0
 _ZTVN7BluezQt7AdapterE@Base 5.2.50
 _ZTVN7BluezQt7BatteryE@Base 5.69.0
 _ZTVN7BluezQt7ManagerE@Base 5.2.50
 _ZTVN7BluezQt7ProfileE@Base 5.2.50
 _ZTVN7BluezQt7RequestI10QByteArrayEE@Base 5.51.0
 _ZTVN7BluezQt7RequestI7QStringEE@Base 5.2.50
 _ZTVN7BluezQt7RequestIjEE@Base 5.2.50
 _ZTVN7BluezQt7RequestIvEE@Base 5.2.50
 _ZTVN7BluezQt9ObexAgentE@Base 5.2.50
 aacCapabilities@Base 5.51.0
 sbcCapabilities@Base 5.51.0
